target datalayout = "e-m:e-p270:32:32-p271:32:32-p272:64:64-i64:64-i128:128-f80:128-n8:16:32:64-S128"
target triple = "x86_64-pc-linux-gnu"

%struct.DdManager = type { %struct.DdNode, ptr, ptr, ptr, ptr, ptr, ptr, ptr, i32, i32, double, double, double, i32, i32, i32, i32, i32, i32, ptr, ptr, %struct.DdSubtable, i32, i32, i32, i32, i32, i32, i32, double, i32, i32, i32, ptr, i64, double, i32, ptr, ptr, ptr, ptr, ptr, ptr, ptr, i32, ptr, ptr, ptr, ptr, ptr, ptr, i32, i32, i32, double, i32, i32, i32, i32, double, double, i32, i32, i32, i32, i32, i32, i32, i32, i32, ptr, ptr, i32, i32, i32, i32, i32, i32, ptr, ptr, ptr, ptr, ptr, ptr, ptr, ptr, i32, i64, i64, i64, i32, i64, i64, double, double, double, double, double, double, i32, ptr, ptr, i64 }
%struct.DdNode = type { i32, i32, ptr, %union.anon, i64 }
%union.anon = type { %struct.DdChildren }
%struct.DdChildren = type { ptr, ptr }
%struct.DdSubtable = type { ptr, i32, i32, i32, i32, i32, i32, i32, i32, i32, i32, i32 }

; Function Attrs: nounwind uwtable
define ptr @Cudd_Support(ptr noundef %0, ptr noundef %1) #0 {
  %3 = alloca ptr, align 8
  %4 = alloca ptr, align 8
  %5 = alloca ptr, align 8
  %6 = alloca ptr, align 8
  %7 = alloca ptr, align 8
  %8 = alloca ptr, align 8
  %9 = alloca ptr, align 8
  %10 = alloca i32, align 4
  %11 = alloca i32, align 4
  %12 = alloca i32, align 4
  store ptr %0, ptr %4, align 8
  store ptr %1, ptr %5, align 8
  %13 = load ptr, ptr %4, align 8
  %14 = getelementptr inbounds %struct.DdManager, ptr %13, i32 0, i32 16
  %15 = load i32, ptr %14, align 4
  %16 = load ptr, ptr %4, align 8
  %17 = getelementptr inbounds %struct.DdManager, ptr %16, i32 0, i32 15
  %18 = load i32, ptr %17, align 8
  %19 = icmp sgt i32 %15, %18
  br i1 %19, label %20, label %24

20:                                               ; preds = %2
  %21 = load ptr, ptr %4, align 8
  %22 = getelementptr inbounds %struct.DdManager, ptr %21, i32 0, i32 16
  %23 = load i32, ptr %22, align 4
  br label %28

24:                                               ; preds = %2
  %25 = load ptr, ptr %4, align 8
  %26 = getelementptr inbounds %struct.DdManager, ptr %25, i32 0, i32 15
  %27 = load i32, ptr %26, align 8
  br label %28

28:                                               ; preds = %24, %20
  %29 = phi i32 [ %23, %20 ], [ %27, %24 ]
  store i32 %29, ptr %12, align 4
  %30 = load i32, ptr %12, align 4
  %31 = sext i32 %30 to i64
  %32 = mul i64 4, %31
  %33 = call noalias ptr @malloc(i64 noundef %32) #5
  store ptr %33, ptr %6, align 8
  %34 = load ptr, ptr %6, align 8
  %35 = icmp eq ptr %34, null
  br i1 %35, label %36, label %39

36:                                               ; preds = %28
  %37 = load ptr, ptr %4, align 8
  %38 = getelementptr inbounds %struct.DdManager, ptr %37, i32 0, i32 86
  store i32 1, ptr %38, align 8
  store ptr null, ptr %3, align 8
  br label %177

39:                                               ; preds = %28
  store i32 0, ptr %10, align 4
  br label %40

40:                                               ; preds = %49, %39
  %41 = load i32, ptr %10, align 4
  %42 = load i32, ptr %12, align 4
  %43 = icmp slt i32 %41, %42
  br i1 %43, label %44, label %52

44:                                               ; preds = %40
  %45 = load ptr, ptr %6, align 8
  %46 = load i32, ptr %10, align 4
  %47 = sext i32 %46 to i64
  %48 = getelementptr inbounds i32, ptr %45, i64 %47
  store i32 0, ptr %48, align 4
  br label %49

49:                                               ; preds = %44
  %50 = load i32, ptr %10, align 4
  %51 = add nsw i32 %50, 1
  store i32 %51, ptr %10, align 4
  br label %40, !llvm.loop !13

52:                                               ; preds = %40
  %53 = load ptr, ptr %5, align 8
  %54 = ptrtoint ptr %53 to i64
  %55 = and i64 %54, -2
  %56 = inttoptr i64 %55 to ptr
  %57 = load ptr, ptr %6, align 8
  call void @ddSupportStep(ptr noundef %56, ptr noundef %57)
  %58 = load ptr, ptr %5, align 8
  %59 = ptrtoint ptr %58 to i64
  %60 = and i64 %59, -2
  %61 = inttoptr i64 %60 to ptr
  call void @ddClearFlag(ptr noundef %61)
  br label %62

62:                                               ; preds = %153, %52
  %63 = load ptr, ptr %4, align 8
  %64 = getelementptr inbounds %struct.DdManager, ptr %63, i32 0, i32 55
  store i32 0, ptr %64, align 8
  %65 = load ptr, ptr %4, align 8
  %66 = getelementptr inbounds %struct.DdManager, ptr %65, i32 0, i32 1
  %67 = load ptr, ptr %66, align 8
  store ptr %67, ptr %7, align 8
  %68 = load ptr, ptr %7, align 8
  %69 = ptrtoint ptr %68 to i64
  %70 = and i64 %69, -2
  %71 = inttoptr i64 %70 to ptr
  %72 = getelementptr inbounds %struct.DdNode, ptr %71, i32 0, i32 1
  %73 = load i32, ptr %72, align 4
  %74 = add i32 %73, 1
  store i32 %74, ptr %72, align 4
  %75 = load i32, ptr %12, align 4
  %76 = sub nsw i32 %75, 1
  store i32 %76, ptr %11, align 4
  br label %77

77:                                               ; preds = %149, %62
  %78 = load i32, ptr %11, align 4
  %79 = icmp sge i32 %78, 0
  br i1 %79, label %80, label %152

80:                                               ; preds = %77
  %81 = load i32, ptr %11, align 4
  %82 = load ptr, ptr %4, align 8
  %83 = getelementptr inbounds %struct.DdManager, ptr %82, i32 0, i32 15
  %84 = load i32, ptr %83, align 8
  %85 = icmp sge i32 %81, %84
  br i1 %85, label %86, label %88

86:                                               ; preds = %80
  %87 = load i32, ptr %11, align 4
  br label %96

88:                                               ; preds = %80
  %89 = load ptr, ptr %4, align 8
  %90 = getelementptr inbounds %struct.DdManager, ptr %89, i32 0, i32 39
  %91 = load ptr, ptr %90, align 8
  %92 = load i32, ptr %11, align 4
  %93 = sext i32 %92 to i64
  %94 = getelementptr inbounds i32, ptr %91, i64 %93
  %95 = load i32, ptr %94, align 4
  br label %96

96:                                               ; preds = %88, %86
  %97 = phi i32 [ %87, %86 ], [ %95, %88 ]
  store i32 %97, ptr %10, align 4
  %98 = load ptr, ptr %6, align 8
  %99 = load i32, ptr %10, align 4
  %100 = sext i32 %99 to i64
  %101 = getelementptr inbounds i32, ptr %98, i64 %100
  %102 = load i32, ptr %101, align 4
  %103 = icmp eq i32 %102, 1
  br i1 %103, label %104, label %148

104:                                              ; preds = %96
  %105 = load ptr, ptr %4, align 8
  %106 = load i32, ptr %10, align 4
  %107 = load ptr, ptr %4, align 8
  %108 = getelementptr inbounds %struct.DdManager, ptr %107, i32 0, i32 1
  %109 = load ptr, ptr %108, align 8
  %110 = load ptr, ptr %4, align 8
  %111 = getelementptr inbounds %struct.DdManager, ptr %110, i32 0, i32 1
  %112 = load ptr, ptr %111, align 8
  %113 = ptrtoint ptr %112 to i64
  %114 = xor i64 %113, 1
  %115 = inttoptr i64 %114 to ptr
  %116 = call ptr @cuddUniqueInter(ptr noundef %105, i32 noundef %106, ptr noundef %109, ptr noundef %115)
  store ptr %116, ptr %9, align 8
  %117 = load ptr, ptr %9, align 8
  %118 = ptrtoint ptr %117 to i64
  %119 = and i64 %118, -2
  %120 = inttoptr i64 %119 to ptr
  %121 = getelementptr inbounds %struct.DdNode, ptr %120, i32 0, i32 1
  %122 = load i32, ptr %121, align 4
  %123 = add i32 %122, 1
  store i32 %123, ptr %121, align 4
  %124 = load ptr, ptr %4, align 8
  %125 = load ptr, ptr %7, align 8
  %126 = load ptr, ptr %9, align 8
  %127 = call ptr @cuddBddAndRecur(ptr noundef %124, ptr noundef %125, ptr noundef %126)
  store ptr %127, ptr %8, align 8
  %128 = load ptr, ptr %8, align 8
  %129 = icmp eq ptr %128, null
  br i1 %129, label %130, label %135

130:                                              ; preds = %104
  %131 = load ptr, ptr %4, align 8
  %132 = load ptr, ptr %7, align 8
  call void @Cudd_RecursiveDeref(ptr noundef %131, ptr noundef %132)
  %133 = load ptr, ptr %4, align 8
  %134 = load ptr, ptr %9, align 8
  call void @Cudd_RecursiveDeref(ptr noundef %133, ptr noundef %134)
  store ptr null, ptr %7, align 8
  br label %152

135:                                              ; preds = %104
  %136 = load ptr, ptr %8, align 8
  %137 = ptrtoint ptr %136 to i64
  %138 = and i64 %137, -2
  %139 = inttoptr i64 %138 to ptr
  %140 = getelementptr inbounds %struct.DdNode, ptr %139, i32 0, i32 1
  %141 = load i32, ptr %140, align 4
  %142 = add i32 %141, 1
  store i32 %142, ptr %140, align 4
  %143 = load ptr, ptr %4, align 8
  %144 = load ptr, ptr %7, align 8
  call void @Cudd_RecursiveDeref(ptr noundef %143, ptr noundef %144)
  %145 = load ptr, ptr %4, align 8
  %146 = load ptr, ptr %9, align 8
  call void @Cudd_RecursiveDeref(ptr noundef %145, ptr noundef %146)
  %147 = load ptr, ptr %8, align 8
  store ptr %147, ptr %7, align 8
  br label %148

148:                                              ; preds = %135, %96
  br label %149

149:                                              ; preds = %148
  %150 = load i32, ptr %11, align 4
  %151 = add nsw i32 %150, -1
  store i32 %151, ptr %11, align 4
  br label %77, !llvm.loop !14

152:                                              ; preds = %130, %77
  br label %153

153:                                              ; preds = %152
  %154 = load ptr, ptr %4, align 8
  %155 = getelementptr inbounds %struct.DdManager, ptr %154, i32 0, i32 55
  %156 = load i32, ptr %155, align 8
  %157 = icmp eq i32 %156, 1
  br i1 %157, label %62, label %158, !llvm.loop !15

158:                                              ; preds = %153
  %159 = load ptr, ptr %6, align 8
  %160 = icmp ne ptr %159, null
  br i1 %160, label %161, label %163

161:                                              ; preds = %158
  %162 = load ptr, ptr %6, align 8
  call void @free(ptr noundef %162) #6
  store ptr null, ptr %6, align 8
  br label %164

163:                                              ; preds = %158
  br label %164

164:                                              ; preds = %163, %161
  %165 = load ptr, ptr %7, align 8
  %166 = icmp ne ptr %165, null
  br i1 %166, label %167, label %175

167:                                              ; preds = %164
  %168 = load ptr, ptr %7, align 8
  %169 = ptrtoint ptr %168 to i64
  %170 = and i64 %169, -2
  %171 = inttoptr i64 %170 to ptr
  %172 = getelementptr inbounds %struct.DdNode, ptr %171, i32 0, i32 1
  %173 = load i32, ptr %172, align 4
  %174 = add i32 %173, -1
  store i32 %174, ptr %172, align 4
  br label %175

175:                                              ; preds = %167, %164
  %176 = load ptr, ptr %7, align 8
  store ptr %176, ptr %3, align 8
  br label %177

177:                                              ; preds = %175, %36
  %178 = load ptr, ptr %3, align 8
  ret ptr %178
}