; Function Attrs: nounwind uwtable
define ptr @Cudd_Support(ptr noundef %0, ptr noundef %1) local_unnamed_addr #0 {
  %3 = getelementptr inbounds nuw i8, ptr %0, i64 140
  %4 = load i32, ptr %3, align 4
  %5 = getelementptr inbounds nuw i8, ptr %0, i64 136
  %6 = load i32, ptr %5, align 8
  %. = tail call i32 @llvm.smax.i32(i32 %4, i32 %6)
  %7 = sext i32 %. to i64
  %8 = shl nsw i64 %7, 2
  %9 = tail call noalias ptr @malloc(i64 noundef %8) #22
  %10 = icmp eq ptr %9, null
  br i1 %10, label %14, label %.preheader

.preheader:                                       ; preds = %2
  %11 = icmp sgt i32 %., 0
  br i1 %11, label %.lr.ph.preheader, label %._crit_edge

.lr.ph.preheader:                                 ; preds = %.preheader
  %12 = zext nneg i32 %. to i64
  %13 = shl nuw nsw i64 %12, 2
  tail call void @llvm.memset.p0.i64(ptr nonnull align 4 %9, i8 0, i64 %13, i1 false)
  br label %._crit_edge

14:                                               ; preds = %2
  %15 = getelementptr inbounds nuw i8, ptr %0, i64 624
  store i32 1, ptr %15, align 8
  br label %86

._crit_edge:                                      ; preds = %.lr.ph.preheader, %.preheader
  %16 = ptrtoint ptr %1 to i64
  %17 = and i64 %16, -2
  %18 = inttoptr i64 %17 to ptr
  tail call fastcc void @ddSupportStep(ptr noundef %18, ptr noundef %9)
  tail call fastcc void @ddClearFlag(ptr noundef %18)
  %19 = getelementptr inbounds nuw i8, ptr %0, i64 448
  %20 = getelementptr inbounds nuw i8, ptr %0, i64 40
  %21 = getelementptr inbounds nuw i8, ptr %0, i64 328
  br i1 %11, label %.lr.ph68.us.preheader, label %.loopexit

.lr.ph68.us.preheader:                            ; preds = %._crit_edge
  %22 = zext nneg i32 %. to i64
  br label %.lr.ph68.us

.lr.ph68.us:                                      ; preds = %.lr.ph68.us.preheader, %..loopexit_crit_edge.us
  store i32 0, ptr %19, align 8
  %23 = load ptr, ptr %20, align 8
  %24 = ptrtoint ptr %23 to i64
  %25 = and i64 %24, -2
  %26 = inttoptr i64 %25 to ptr
  %27 = getelementptr inbounds nuw i8, ptr %26, i64 4
  %28 = load i32, ptr %27, align 4
  %29 = add i32 %28, 1
  store i32 %29, ptr %27, align 4
  br label %30

30:                                               ; preds = %.lr.ph68.us, %65
  %indvars.iv = phi i64 [ %22, %.lr.ph68.us ], [ %indvars.iv.next, %65 ]
  %.05564.us = phi ptr [ %23, %.lr.ph68.us ], [ %.1.us, %65 ]
  %indvars.iv.next = add nsw i64 %indvars.iv, -1
  %31 = load i32, ptr %5, align 8
  %32 = sext i32 %31 to i64
  %.not.not.us = icmp sgt i64 %indvars.iv, %32
  %33 = trunc nuw nsw i64 %indvars.iv.next to i32
  br i1 %.not.not.us, label %38, label %34

34:                                               ; preds = %30
  %35 = load ptr, ptr %21, align 8
  %36 = getelementptr inbounds nuw i32, ptr %35, i64 %indvars.iv.next
  %37 = load i32, ptr %36, align 4
  br label %38

38:                                               ; preds = %34, %30
  %39 = phi i32 [ %37, %34 ], [ %33, %30 ]
  %40 = sext i32 %39 to i64
  %41 = getelementptr inbounds i32, ptr %9, i64 %40
  %42 = load i32, ptr %41, align 4
  %43 = icmp eq i32 %42, 1
  br i1 %43, label %44, label %65

44:                                               ; preds = %38
  %45 = load ptr, ptr %20, align 8
  %46 = ptrtoint ptr %45 to i64
  %47 = xor i64 %46, 1
  %48 = inttoptr i64 %47 to ptr
  %49 = tail call ptr @cuddUniqueInter(ptr noundef nonnull %0, i32 noundef %39, ptr noundef %45, ptr noundef %48) #23
  %50 = ptrtoint ptr %49 to i64
  %51 = and i64 %50, -2
  %52 = inttoptr i64 %51 to ptr
  %53 = getelementptr inbounds nuw i8, ptr %52, i64 4
  %54 = load i32, ptr %53, align 4
  %55 = add i32 %54, 1
  store i32 %55, ptr %53, align 4
  %56 = tail call ptr @cuddBddAndRecur(ptr noundef nonnull %0, ptr noundef %.05564.us, ptr noundef %49) #23
  %57 = icmp eq ptr %56, null
  br i1 %57, label %67, label %58

58:                                               ; preds = %44
  %59 = ptrtoint ptr %56 to i64
  %60 = and i64 %59, -2
  %61 = inttoptr i64 %60 to ptr
  %62 = getelementptr inbounds nuw i8, ptr %61, i64 4
  %63 = load i32, ptr %62, align 4
  %64 = add i32 %63, 1
  store i32 %64, ptr %62, align 4
  tail call void @Cudd_RecursiveDeref(ptr noundef nonnull %0, ptr noundef %.05564.us) #23
  tail call void @Cudd_RecursiveDeref(ptr noundef nonnull %0, ptr noundef %49) #23
  br label %65

65:                                               ; preds = %58, %38
  %.1.us = phi ptr [ %56, %58 ], [ %.05564.us, %38 ]
  %66 = icmp sgt i64 %indvars.iv, 1
  br i1 %66, label %30, label %..loopexit_crit_edge.us, !llvm.loop !15

67:                                               ; preds = %44
  tail call void @Cudd_RecursiveDeref(ptr noundef nonnull %0, ptr noundef %.05564.us) #23
  tail call void @Cudd_RecursiveDeref(ptr noundef nonnull %0, ptr noundef %49) #23
  br label %..loopexit_crit_edge.us

..loopexit_crit_edge.us:                          ; preds = %65, %67
  %.2.us = phi ptr [ null, %67 ], [ %.1.us, %65 ]
  %68 = load i32, ptr %19, align 8
  %69 = icmp eq i32 %68, 1
  br i1 %69, label %.lr.ph68.us, label %.split70.us, !llvm.loop !16

.loopexit:                                        ; preds = %._crit_edge, %.loopexit
  store i32 0, ptr %19, align 8
  %70 = load ptr, ptr %20, align 8
  %71 = ptrtoint ptr %70 to i64
  %72 = and i64 %71, -2
  %73 = inttoptr i64 %72 to ptr
  %74 = getelementptr inbounds nuw i8, ptr %73, i64 4
  %75 = load i32, ptr %74, align 4
  %76 = add i32 %75, 1
  store i32 %76, ptr %74, align 4
  %77 = load i32, ptr %19, align 8
  %78 = icmp eq i32 %77, 1
  br i1 %78, label %.loopexit, label %.split70.us, !llvm.loop !16

.split70.us:                                      ; preds = %.loopexit, %..loopexit_crit_edge.us
  %.us-phi = phi ptr [ %.2.us, %..loopexit_crit_edge.us ], [ %70, %.loopexit ]
  tail call void @free(ptr noundef %9) #23
  %.not = icmp eq ptr %.us-phi, null
  br i1 %.not, label %86, label %79

79:                                               ; preds = %.split70.us
  %80 = ptrtoint ptr %.us-phi to i64
  %81 = and i64 %80, -2
  %82 = inttoptr i64 %81 to ptr
  %83 = getelementptr inbounds nuw i8, ptr %82, i64 4
  %84 = load i32, ptr %83, align 4
  %85 = add i32 %84, -1
  store i32 %85, ptr %83, align 4
  br label %86

86:                                               ; preds = %.split70.us, %79, %14
  %.0 = phi ptr [ null, %14 ], [ %.us-phi, %79 ], [ null, %.split70.us ]
  ret ptr %.0
}